; ModuleID = 'source-C-CXX/26/2023.c'
source_filename = "source-C-CXX/26/2023.c"
target datalayout = "e-m:e-p270:32:32-p271:32:32-p272:64:64-i64:64-f80:128-n8:16:32:64-S128"
target triple = "x86_64-pc-linux-gnu"

@.str = private unnamed_addr constant [3 x i8] c"%d\00", align 1
@.str.1 = private unnamed_addr constant [12 x i8] c"%lf %lf %lf\00", align 1
@.str.2 = private unnamed_addr constant [17 x i8] c"x1=%.5f;x2=%.5f\0A\00", align 1
@.str.3 = private unnamed_addr constant [12 x i8] c"x1=x2=%.5f\0A\00", align 1
@.str.4 = private unnamed_addr constant [29 x i8] c"x1=%.5f+%.5fi;x2=%.5f-%.5fi\0A\00", align 1

; Function Attrs: nofree nounwind sspstrong uwtable
define dso_local i32 @main() local_unnamed_addr #0 {
  %1 = alloca i32, align 4
  %2 = bitcast i32* %1 to i8*
  call void @llvm.lifetime.start.p0i8(i64 4, i8* nonnull %2) #6
  %3 = call i32 (i8*, ...) @__isoc99_scanf(i8* getelementptr inbounds ([3 x i8], [3 x i8]* @.str, i64 0, i64 0), i32* nonnull %1)
  %4 = load i32, i32* %1, align 4, !tbaa !5
  %5 = sext i32 %4 to i64
  %6 = mul nsw i64 %5, 24
  %7 = call noalias align 16 i8* @malloc(i64 %6) #6
  %8 = bitcast i8* %7 to double*
  %9 = icmp sgt i32 %4, 0
  br i1 %9, label %12, label %71

10:                                               ; preds = %12
  %11 = icmp sgt i32 %21, 0
  br i1 %11, label %24, label %71

12:                                               ; preds = %0, %12
  %13 = phi i64 [ %20, %12 ], [ 0, %0 ]
  %14 = mul i64 %13, 3
  %15 = and i64 %14, 4294967295
  %16 = getelementptr inbounds double, double* %8, i64 %15
  %17 = getelementptr inbounds double, double* %16, i64 1
  %18 = getelementptr inbounds double, double* %16, i64 2
  %19 = call i32 (i8*, ...) @__isoc99_scanf(i8* getelementptr inbounds ([12 x i8], [12 x i8]* @.str.1, i64 0, i64 0), double* %16, double* nonnull %17, double* nonnull %18)
  %20 = add nuw nsw i64 %13, 1
  %21 = load i32, i32* %1, align 4, !tbaa !5
  %22 = sext i32 %21 to i64
  %23 = icmp slt i64 %20, %22
  br i1 %23, label %12, label %10, !llvm.loop !9

24:                                               ; preds = %10, %66
  %25 = phi i64 [ %67, %66 ], [ 0, %10 ]
  %26 = mul nuw nsw i64 %25, 3
  %27 = getelementptr inbounds double, double* %8, i64 %26
  %28 = load double, double* %27, align 8, !tbaa !11
  %29 = getelementptr inbounds double, double* %27, i64 1
  %30 = bitcast double* %29 to <2 x double>*
  %31 = load <2 x double>, <2 x double>* %30, align 8, !tbaa !11
  %32 = fmul double %28, 4.000000e+00
  %33 = extractelement <2 x double> %31, i32 0
  %34 = insertelement <2 x double> %31, double %32, i32 1
  %35 = fmul <2 x double> %31, %34
  %36 = shufflevector <2 x double> %35, <2 x double> poison, <2 x i32> <i32 1, i32 undef>
  %37 = fsub <2 x double> %35, %36
  %38 = extractelement <2 x double> %37, i32 0
  %39 = fcmp ogt double %38, 0.000000e+00
  br i1 %39, label %40, label %50

40:                                               ; preds = %24
  %41 = fneg double %33
  %42 = call double @sqrt(double %38) #6
  %43 = fsub double %42, %33
  %44 = fmul double %28, 2.000000e+00
  %45 = fdiv double %43, %44
  %46 = call double @sqrt(double %38) #6
  %47 = fsub double %41, %46
  %48 = fdiv double %47, %44
  %49 = call i32 (i8*, ...) @printf(i8* nonnull dereferenceable(1) getelementptr inbounds ([17 x i8], [17 x i8]* @.str.2, i64 0, i64 0), double %45, double %48)
  br label %66

50:                                               ; preds = %24
  %51 = call double @llvm.fabs.f64(double %38)
  %52 = fcmp olt double %51, 1.000000e-05
  %53 = fneg double %33
  %54 = fmul double %28, 2.000000e+00
  %55 = fdiv double %53, %54
  br i1 %52, label %56, label %58

56:                                               ; preds = %50
  %57 = call i32 (i8*, ...) @printf(i8* nonnull dereferenceable(1) getelementptr inbounds ([12 x i8], [12 x i8]* @.str.3, i64 0, i64 0), double %55)
  br label %66

58:                                               ; preds = %50
  %59 = call double @llvm.fabs.f64(double %55)
  %60 = fcmp olt double %59, 1.000000e-05
  %61 = select i1 %60, double 0.000000e+00, double %55
  %62 = fneg double %38
  %63 = call double @sqrt(double %62) #6
  %64 = fdiv double %63, %54
  %65 = call i32 (i8*, ...) @printf(i8* nonnull dereferenceable(1) getelementptr inbounds ([29 x i8], [29 x i8]* @.str.4, i64 0, i64 0), double %61, double %64, double %61, double %64)
  br label %66

66:                                               ; preds = %40, %58, %56
  %67 = add nuw nsw i64 %25, 1
  %68 = load i32, i32* %1, align 4, !tbaa !5
  %69 = sext i32 %68 to i64
  %70 = icmp slt i64 %67, %69
  br i1 %70, label %24, label %71, !llvm.loop !13

71:                                               ; preds = %66, %0, %10
  call void @llvm.lifetime.end.p0i8(i64 4, i8* nonnull %2) #6
  ret i32 0
}

; Function Attrs: argmemonly mustprogress nofree nosync nounwind willreturn
declare void @llvm.lifetime.start.p0i8(i64 immarg, i8* nocapture) #1

; Function Attrs: nofree nounwind
declare noundef i32 @__isoc99_scanf(i8* nocapture noundef readonly, ...) local_unnamed_addr #2

; Function Attrs: inaccessiblememonly mustprogress nofree nounwind willreturn
declare noalias noundef align 16 i8* @malloc(i64 noundef) local_unnamed_addr #3

; Function Attrs: mustprogress nofree nounwind willreturn
declare double @sqrt(double) local_unnamed_addr #4

; Function Attrs: nofree nounwind
declare noundef i32 @printf(i8* nocapture noundef readonly, ...) local_unnamed_addr #2

; Function Attrs: mustprogress nofree nosync nounwind readnone speculatable willreturn
declare double @llvm.fabs.f64(double) #5

; Function Attrs: argmemonly mustprogress nofree nosync nounwind willreturn
declare void @llvm.lifetime.end.p0i8(i64 immarg, i8* nocapture) #1


!llvm.module.flags = !{!0, !1, !2, !3}
!llvm.ident = !{!4}

!0 = !{i32 1, !"wchar_size", i32 4}
!1 = !{i32 7, !"PIC Level", i32 2}
!2 = !{i32 7, !"PIE Level", i32 2}
!3 = !{i32 7, !"uwtable", i32 1}
!4 = !{!"clang version 13.0.0"}
!5 = !{!6, !6, i64 0}
!6 = !{!"int", !7, i64 0}
!7 = !{!"omnipotent char", !8, i64 0}
!8 = !{!"Simple C/C++ TBAA"}
!9 = distinct !{!9, !10}
!10 = !{!"llvm.loop.mustprogress"}
!11 = !{!12, !12, i64 0}
!12 = !{!"double", !7, i64 0}
!13 = distinct !{!13, !10}
